target datalayout = "e-m:e-p270:32:32-p271:32:32-p272:64:64-i64:64-i128:128-f80:128-n8:16:32:64-S128"
target triple = "x86_64-pc-linux-gnu"

%"class.OpenColorIO_v2_5dev::LogOpCPU" = type { %"class.OpenColorIO_v2_5dev::OpCPU" }
%"class.OpenColorIO_v2_5dev::OpCPU" = type { ptr }
%struct.__storeu_ps = type { <4 x float> }
%"class.OpenColorIO_v2_5dev::AntiLogRenderer" = type <{ %"class.OpenColorIO_v2_5dev::LogOpCPU", float, [4 x i8] }>

@_ZN19OpenColorIO_v2_5devL7EPOSINFE = internal constant <4 x float> splat (float 0x7FF0000000000000), align 16

; Function Attrs: alwaysinline mustprogress nounwind uwtable
define internal noundef <4 x float> @_ZL10_mm_and_psDv4_fS_(<4 x float> noundef %0, <4 x float> noundef %1) #12 {
  %3 = alloca <4 x float>, align 16
  %4 = alloca <4 x float>, align 16
  store <4 x float> %0, ptr %3, align 16, !tbaa !129
  store <4 x float> %1, ptr %4, align 16, !tbaa !129
  %5 = load <4 x float>, ptr %3, align 16, !tbaa !129
  %6 = bitcast <4 x float> %5 to <4 x i32>
  %7 = load <4 x float>, ptr %4, align 16, !tbaa !129
  %8 = bitcast <4 x float> %7 to <4 x i32>
  %9 = and <4 x i32> %6, %8
  %10 = bitcast <4 x i32> %9 to <4 x float>
  ret <4 x float> %10
}

; Function Attrs: alwaysinline mustprogress nounwind uwtable
define internal noundef <4 x float> @_ZL10_mm_xor_psDv4_fS_(<4 x float> noundef %0, <4 x float> noundef %1) #12 {
  %3 = alloca <4 x float>, align 16
  %4 = alloca <4 x float>, align 16
  store <4 x float> %0, ptr %3, align 16, !tbaa !129
  store <4 x float> %1, ptr %4, align 16, !tbaa !129
  %5 = load <4 x float>, ptr %3, align 16, !tbaa !129
  %6 = bitcast <4 x float> %5 to <4 x i32>
  %7 = load <4 x float>, ptr %4, align 16, !tbaa !129
  %8 = bitcast <4 x float> %7 to <4 x i32>
  %9 = xor <4 x i32> %6, %8
  %10 = bitcast <4 x i32> %9 to <4 x float>
  ret <4 x float> %10
}

; Function Attrs: inlinehint mustprogress uwtable
define linkonce_odr hidden noundef <4 x float> @_ZN19OpenColorIO_v2_5dev9sseSelectERKDv4_fS2_S2_(ptr noundef nonnull align 16 dereferenceable(16) %0, ptr noundef nonnull align 16 dereferenceable(16) %1, ptr noundef nonnull align 16 dereferenceable(16) %2) #13 comdat {
  %4 = alloca ptr, align 8
  %5 = alloca ptr, align 8
  %6 = alloca ptr, align 8
  store ptr %0, ptr %4, align 8, !tbaa !124
  store ptr %1, ptr %5, align 8, !tbaa !124
  store ptr %2, ptr %6, align 8, !tbaa !124
  %7 = load ptr, ptr %6, align 8, !tbaa !124
  %8 = load <4 x float>, ptr %7, align 16, !tbaa !129
  %9 = load ptr, ptr %4, align 8, !tbaa !124
  %10 = load <4 x float>, ptr %9, align 16, !tbaa !129
  %11 = load ptr, ptr %5, align 8, !tbaa !124
  %12 = load <4 x float>, ptr %11, align 16, !tbaa !129
  %13 = load ptr, ptr %6, align 8, !tbaa !124
  %14 = load <4 x float>, ptr %13, align 16, !tbaa !129
  %15 = call noundef <4 x float> @_ZL10_mm_xor_psDv4_fS_(<4 x float> noundef %12, <4 x float> noundef %14)
  %16 = call noundef <4 x float> @_ZL10_mm_and_psDv4_fS_(<4 x float> noundef %10, <4 x float> noundef %15)
  %17 = call noundef <4 x float> @_ZL10_mm_xor_psDv4_fS_(<4 x float> noundef %8, <4 x float> noundef %16)
  ret <4 x float> %17
}

; Function Attrs: alwaysinline mustprogress nounwind uwtable
define internal noundef <4 x float> @_ZL12_mm_cmpge_psDv4_fS_(<4 x float> noundef %0, <4 x float> noundef %1) #12 {
  %3 = alloca <4 x float>, align 16
  %4 = alloca <4 x float>, align 16
  store <4 x float> %0, ptr %3, align 16, !tbaa !129
  store <4 x float> %1, ptr %4, align 16, !tbaa !129
  %5 = load <4 x float>, ptr %4, align 16, !tbaa !129
  %6 = load <4 x float>, ptr %3, align 16, !tbaa !129
  %7 = fcmp ole <4 x float> %5, %6
  %8 = sext <4 x i1> %7 to <4 x i32>
  %9 = bitcast <4 x i32> %8 to <4 x float>
  ret <4 x float> %9
}

; Function Attrs: alwaysinline mustprogress nounwind uwtable
define internal noundef <4 x float> @_ZL13_mm_andnot_psDv4_fS_(<4 x float> noundef %0, <4 x float> noundef %1) #12 {
  %3 = alloca <4 x float>, align 16
  %4 = alloca <4 x float>, align 16
  store <4 x float> %0, ptr %3, align 16, !tbaa !129
  store <4 x float> %1, ptr %4, align 16, !tbaa !129
  %5 = load <4 x float>, ptr %3, align 16, !tbaa !129
  %6 = bitcast <4 x float> %5 to <4 x i32>
  %7 = xor <4 x i32> %6, splat (i32 -1)
  %8 = load <4 x float>, ptr %4, align 16, !tbaa !129
  %9 = bitcast <4 x float> %8 to <4 x i32>
  %10 = and <4 x i32> %7, %9
  %11 = bitcast <4 x i32> %10 to <4 x float>
  ret <4 x float> %11
}

; Function Attrs: alwaysinline mustprogress nounwind uwtable
define internal noundef <4 x float> @_ZL12_mm_cmplt_psDv4_fS_(<4 x float> noundef %0, <4 x float> noundef %1) #12 {
  %3 = alloca <4 x float>, align 16
  %4 = alloca <4 x float>, align 16
  store <4 x float> %0, ptr %3, align 16, !tbaa !129
  store <4 x float> %1, ptr %4, align 16, !tbaa !129
  %5 = load <4 x float>, ptr %3, align 16, !tbaa !129
  %6 = load <4 x float>, ptr %4, align 16, !tbaa !129
  %7 = fcmp olt <4 x float> %5, %6
  %8 = sext <4 x i1> %7 to <4 x i32>
  %9 = bitcast <4 x i32> %8 to <4 x float>
  ret <4 x float> %9
}

; Function Attrs: alwaysinline mustprogress nounwind uwtable
define internal noundef <4 x float> @_ZL10_mm_add_psDv4_fS_(<4 x float> noundef %0, <4 x float> noundef %1) #12 {
  %3 = alloca <4 x float>, align 16
  %4 = alloca <4 x float>, align 16
  store <4 x float> %0, ptr %3, align 16, !tbaa !129
  store <4 x float> %1, ptr %4, align 16, !tbaa !129
  %5 = load <4 x float>, ptr %3, align 16, !tbaa !129
  %6 = load <4 x float>, ptr %4, align 16, !tbaa !129
  %7 = fadd <4 x float> %5, %6
  ret <4 x float> %7
}

; Function Attrs: alwaysinline mustprogress nounwind uwtable
define internal noundef <4 x float> @_ZL10_mm_sub_psDv4_fS_(<4 x float> noundef %0, <4 x float> noundef %1) #12 {
  %3 = alloca <4 x float>, align 16
  %4 = alloca <4 x float>, align 16
  store <4 x float> %0, ptr %3, align 16, !tbaa !129
  store <4 x float> %1, ptr %4, align 16, !tbaa !129
  %5 = load <4 x float>, ptr %3, align 16, !tbaa !129
  %6 = load <4 x float>, ptr %4, align 16, !tbaa !129
  %7 = fsub <4 x float> %5, %6
  ret <4 x float> %7
}

; Function Attrs: alwaysinline mustprogress nounwind uwtable
define internal noundef <4 x float> @_ZL15_mm_cvtepi32_psDv2_x(<2 x i64> noundef %0) #12 {
  %2 = alloca <2 x i64>, align 16
  store <2 x i64> %0, ptr %2, align 16, !tbaa !129
  %3 = load <2 x i64>, ptr %2, align 16, !tbaa !129
  %4 = bitcast <2 x i64> %3 to <4 x i32>
  %5 = sitofp <4 x i32> %4 to <4 x float>
  ret <4 x float> %5
}

; Function Attrs: alwaysinline mustprogress nounwind uwtable
define internal noundef <4 x float> @_ZL16_mm_castsi128_psDv2_x(<2 x i64> noundef %0) #12 {
  %2 = alloca <2 x i64>, align 16
  store <2 x i64> %0, ptr %2, align 16, !tbaa !129
  %3 = load <2 x i64>, ptr %2, align 16, !tbaa !129
  %4 = bitcast <2 x i64> %3 to <4 x float>
  ret <4 x float> %4
}

; Function Attrs: alwaysinline mustprogress nounwind uwtable
define internal noundef <2 x i64> @_ZL14_mm_slli_epi32Dv2_xi(<2 x i64> noundef %0, i32 noundef %1) #12 {
  %3 = alloca <2 x i64>, align 16
  %4 = alloca i32, align 4
  store <2 x i64> %0, ptr %3, align 16, !tbaa !129
  store i32 %1, ptr %4, align 4, !tbaa !141
  %5 = load <2 x i64>, ptr %3, align 16, !tbaa !129
  %6 = bitcast <2 x i64> %5 to <4 x i32>
  %7 = load i32, ptr %4, align 4, !tbaa !141
  %8 = call <4 x i32> @llvm.x86.sse2.pslli.d(<4 x i32> %6, i32 %7)
  %9 = bitcast <4 x i32> %8 to <2 x i64>
  ret <2 x i64> %9
}

; Function Attrs: alwaysinline mustprogress nounwind uwtable
define internal noundef <2 x i64> @_ZL13_mm_add_epi32Dv2_xS_(<2 x i64> noundef %0, <2 x i64> noundef %1) #12 {
  %3 = alloca <2 x i64>, align 16
  %4 = alloca <2 x i64>, align 16
  store <2 x i64> %0, ptr %3, align 16, !tbaa !129
  store <2 x i64> %1, ptr %4, align 16, !tbaa !129
  %5 = load <2 x i64>, ptr %3, align 16, !tbaa !129
  %6 = bitcast <2 x i64> %5 to <4 x i32>
  %7 = load <2 x i64>, ptr %4, align 16, !tbaa !129
  %8 = bitcast <2 x i64> %7 to <4 x i32>
  %9 = add <4 x i32> %6, %8
  %10 = bitcast <4 x i32> %9 to <2 x i64>
  ret <2 x i64> %10
}

; Function Attrs: alwaysinline mustprogress nounwind uwtable
define internal noundef <2 x i64> @_ZL16_mm_castps_si128Dv4_f(<4 x float> noundef %0) #12 {
  %2 = alloca <4 x float>, align 16
  store <4 x float> %0, ptr %2, align 16, !tbaa !129
  %3 = load <4 x float>, ptr %2, align 16, !tbaa !129
  %4 = bitcast <4 x float> %3 to <2 x i64>
  ret <2 x i64> %4
}

; Function Attrs: alwaysinline mustprogress nounwind uwtable
define internal noundef <4 x float> @_ZL13_mm_cmpnle_psDv4_fS_(<4 x float> noundef %0, <4 x float> noundef %1) #12 {
  %3 = alloca <4 x float>, align 16
  %4 = alloca <4 x float>, align 16
  store <4 x float> %0, ptr %3, align 16, !tbaa !129
  store <4 x float> %1, ptr %4, align 16, !tbaa !129
  %5 = load <4 x float>, ptr %3, align 16, !tbaa !129
  %6 = load <4 x float>, ptr %4, align 16, !tbaa !129
  %7 = fcmp ugt <4 x float> %5, %6
  %8 = sext <4 x i1> %7 to <4 x i32>
  %9 = bitcast <4 x i32> %8 to <4 x float>
  ret <4 x float> %9
}

; Function Attrs: alwaysinline mustprogress nounwind uwtable
define internal noundef <2 x i64> @_ZL16_mm_cvttps_epi32Dv4_f(<4 x float> noundef %0) #12 {
  %2 = alloca <4 x float>, align 16
  store <4 x float> %0, ptr %2, align 16, !tbaa !129
  %3 = load <4 x float>, ptr %2, align 16, !tbaa !129
  %4 = call <4 x i32> @llvm.x86.sse2.cvttps2dq(<4 x float> %3)
  %5 = bitcast <4 x i32> %4 to <2 x i64>
  ret <2 x i64> %5
}

; Function Attrs: alwaysinline mustprogress nounwind uwtable
define internal void @_ZL13_mm_storeu_psPfDv4_f(ptr noundef %0, <4 x float> noundef %1) #12 {
  %3 = alloca ptr, align 8
  %4 = alloca <4 x float>, align 16
  store ptr %0, ptr %3, align 8, !tbaa !47
  store <4 x float> %1, ptr %4, align 16, !tbaa !129
  %5 = load <4 x float>, ptr %4, align 16, !tbaa !129
  %6 = load ptr, ptr %3, align 8, !tbaa !47
  %7 = getelementptr inbounds nuw %struct.__storeu_ps, ptr %6, i32 0, i32 0
  store <4 x float> %5, ptr %7, align 1, !tbaa !129
  ret void
}

; Function Attrs: inlinehint mustprogress uwtable
define linkonce_odr hidden noundef <4 x float> @_ZN19OpenColorIO_v2_5dev7sseExp2EDv4_f(<4 x float> noundef %0) #13 comdat {
  %2 = alloca <4 x float>, align 16
  %3 = alloca <2 x i64>, align 16
  %4 = alloca <4 x float>, align 16
  %5 = alloca <4 x float>, align 16
  %6 = alloca <4 x float>, align 16
  %7 = alloca <4 x float>, align 16
  %8 = alloca <4 x float>, align 16
  %9 = alloca <4 x float>, align 16
  store <4 x float> %0, ptr %2, align 16, !tbaa !129
  call void @llvm.lifetime.start.p0(i64 16, ptr %3) #3
  %10 = load <4 x float>, ptr %2, align 16, !tbaa !129
  %11 = call noundef <2 x i64> @_ZL16_mm_cvttps_epi32Dv4_f(<4 x float> noundef %10)
  %12 = load <4 x float>, ptr %2, align 16, !tbaa !129
  %13 = call noundef <4 x float> @_ZL13_mm_cmpnle_psDv4_fS_(<4 x float> noundef zeroinitializer, <4 x float> noundef %12)
  %14 = call noundef <2 x i64> @_ZL16_mm_castps_si128Dv4_f(<4 x float> noundef %13)
  %15 = call noundef <2 x i64> @_ZL13_mm_add_epi32Dv2_xS_(<2 x i64> noundef %11, <2 x i64> noundef %14)
  store <2 x i64> %15, ptr %3, align 16, !tbaa !129
  call void @llvm.lifetime.start.p0(i64 16, ptr %4) #3
  %16 = load <2 x i64>, ptr %3, align 16, !tbaa !129
  %17 = call noundef <2 x i64> @_ZL13_mm_add_epi32Dv2_xS_(<2 x i64> noundef %16, <2 x i64> noundef splat (i64 545460846719))
  %18 = call noundef <2 x i64> @_ZL14_mm_slli_epi32Dv2_xi(<2 x i64> noundef %17, i32 noundef 23)
  %19 = call noundef <4 x float> @_ZL16_mm_castsi128_psDv2_x(<2 x i64> noundef %18)
  store <4 x float> %19, ptr %4, align 16, !tbaa !129
  call void @llvm.lifetime.start.p0(i64 16, ptr %5) #3
  %20 = load <2 x i64>, ptr %3, align 16, !tbaa !129
  %21 = call noundef <4 x float> @_ZL15_mm_cvtepi32_psDv2_x(<2 x i64> noundef %20)
  store <4 x float> %21, ptr %5, align 16, !tbaa !129
  call void @llvm.lifetime.start.p0(i64 16, ptr %6) #3
  %22 = load <4 x float>, ptr %2, align 16, !tbaa !129
  %23 = load <4 x float>, ptr %5, align 16, !tbaa !129
  %24 = call noundef <4 x float> @_ZL10_mm_sub_psDv4_fS_(<4 x float> noundef %22, <4 x float> noundef %23)
  store <4 x float> %24, ptr %6, align 16, !tbaa !129
  call void @llvm.lifetime.start.p0(i64 16, ptr %7) #3
  %25 = load <4 x float>, ptr %6, align 16, !tbaa !129
  %26 = call noundef <4 x float> @_ZL10_mm_mul_psDv4_fS_(<4 x float> noundef splat (float 0x3F8BB7CD40000000), <4 x float> noundef %25)
  %27 = call noundef <4 x float> @_ZL10_mm_add_psDv4_fS_(<4 x float> noundef %26, <4 x float> noundef splat (float 0x3FAAA13F00000000))
  %28 = load <4 x float>, ptr %6, align 16, !tbaa !129
  %29 = call noundef <4 x float> @_ZL10_mm_mul_psDv4_fS_(<4 x float> noundef %27, <4 x float> noundef %28)
  %30 = call noundef <4 x float> @_ZL10_mm_add_psDv4_fS_(<4 x float> noundef %29, <4 x float> noundef splat (float 0x3FCEE798A0000000))
  %31 = load <4 x float>, ptr %6, align 16, !tbaa !129
  %32 = call noundef <4 x float> @_ZL10_mm_mul_psDv4_fS_(<4 x float> noundef %30, <4 x float> noundef %31)
  %33 = call noundef <4 x float> @_ZL10_mm_add_psDv4_fS_(<4 x float> noundef %32, <4 x float> noundef splat (float 0x3FE62D1660000000))
  %34 = load <4 x float>, ptr %6, align 16, !tbaa !129
  %35 = call noundef <4 x float> @_ZL10_mm_mul_psDv4_fS_(<4 x float> noundef %33, <4 x float> noundef %34)
  %36 = call noundef <4 x float> @_ZL10_mm_add_psDv4_fS_(<4 x float> noundef %35, <4 x float> noundef splat (float 0x3FF00002C0000000))
  store <4 x float> %36, ptr %7, align 16, !tbaa !129
  call void @llvm.lifetime.start.p0(i64 16, ptr %8) #3
  %37 = load <4 x float>, ptr %4, align 16, !tbaa !129
  %38 = load <4 x float>, ptr %7, align 16, !tbaa !129
  %39 = call noundef <4 x float> @_ZL10_mm_mul_psDv4_fS_(<4 x float> noundef %37, <4 x float> noundef %38)
  store <4 x float> %39, ptr %8, align 16, !tbaa !129
  %40 = load <4 x float>, ptr %2, align 16, !tbaa !129
  %41 = call noundef <4 x float> @_ZL12_mm_cmplt_psDv4_fS_(<4 x float> noundef %40, <4 x float> noundef splat (float -1.260000e+02))
  %42 = load <4 x float>, ptr %8, align 16, !tbaa !129
  %43 = call noundef <4 x float> @_ZL13_mm_andnot_psDv4_fS_(<4 x float> noundef %41, <4 x float> noundef %42)
  store <4 x float> %43, ptr %8, align 16, !tbaa !129
  call void @llvm.lifetime.start.p0(i64 16, ptr %9) #3
  %44 = load <4 x float>, ptr %2, align 16, !tbaa !129
  %45 = call noundef <4 x float> @_ZL12_mm_cmpge_psDv4_fS_(<4 x float> noundef %44, <4 x float> noundef splat (float 1.280000e+02))
  store <4 x float> %45, ptr %9, align 16, !tbaa !129
  %46 = call noundef <4 x float> @_ZN19OpenColorIO_v2_5dev9sseSelectERKDv4_fS2_S2_(ptr noundef nonnull align 16 dereferenceable(16) %9, ptr noundef nonnull align 16 dereferenceable(16) @_ZN19OpenColorIO_v2_5devL7EPOSINFE, ptr noundef nonnull align 16 dereferenceable(16) %8)
  store <4 x float> %46, ptr %8, align 16, !tbaa !129
  call void @llvm.lifetime.end.p0(i64 16, ptr %9) #3
  %47 = load <4 x float>, ptr %8, align 16, !tbaa !129
  call void @llvm.lifetime.end.p0(i64 16, ptr %8) #3
  call void @llvm.lifetime.end.p0(i64 16, ptr %7) #3
  call void @llvm.lifetime.end.p0(i64 16, ptr %6) #3
  call void @llvm.lifetime.end.p0(i64 16, ptr %5) #3
  call void @llvm.lifetime.end.p0(i64 16, ptr %4) #3
  call void @llvm.lifetime.end.p0(i64 16, ptr %3) #3
  ret <4 x float> %47
}

; Function Attrs: alwaysinline mustprogress nounwind uwtable
define internal noundef <4 x float> @_ZL10_mm_mul_psDv4_fS_(<4 x float> noundef %0, <4 x float> noundef %1) #12 {
  %3 = alloca <4 x float>, align 16
  %4 = alloca <4 x float>, align 16
  store <4 x float> %0, ptr %3, align 16, !tbaa !129
  store <4 x float> %1, ptr %4, align 16, !tbaa !129
  %5 = load <4 x float>, ptr %3, align 16, !tbaa !129
  %6 = load <4 x float>, ptr %4, align 16, !tbaa !129
  %7 = fmul <4 x float> %5, %6
  ret <4 x float> %7
}

; Function Attrs: alwaysinline mustprogress nounwind uwtable
define internal noundef <4 x float> @_ZL10_mm_set_psffff(float noundef %0, float noundef %1, float noundef %2, float noundef %3) #12 {
  %5 = alloca float, align 4
  %6 = alloca float, align 4
  %7 = alloca float, align 4
  %8 = alloca float, align 4
  %9 = alloca <4 x float>, align 16
  store float %0, ptr %5, align 4, !tbaa !14
  store float %1, ptr %6, align 4, !tbaa !14
  store float %2, ptr %7, align 4, !tbaa !14
  store float %3, ptr %8, align 4, !tbaa !14
  %10 = load float, ptr %8, align 4, !tbaa !14
  %11 = insertelement <4 x float> poison, float %10, i32 0
  %12 = load float, ptr %7, align 4, !tbaa !14
  %13 = insertelement <4 x float> %11, float %12, i32 1
  %14 = load float, ptr %6, align 4, !tbaa !14
  %15 = insertelement <4 x float> %13, float %14, i32 2
  %16 = load float, ptr %5, align 4, !tbaa !14
  %17 = insertelement <4 x float> %15, float %16, i32 3
  store <4 x float> %17, ptr %9, align 16, !tbaa !129
  %18 = load <4 x float>, ptr %9, align 16, !tbaa !129
  ret <4 x float> %18
}

; Function Attrs: alwaysinline mustprogress nounwind uwtable
define internal noundef <4 x float> @_ZL11_mm_set1_psf(float noundef %0) #12 {
  %2 = alloca float, align 4
  %3 = alloca <4 x float>, align 16
  store float %0, ptr %2, align 4, !tbaa !14
  %4 = load float, ptr %2, align 4, !tbaa !14
  %5 = insertelement <4 x float> poison, float %4, i32 0
  %6 = load float, ptr %2, align 4, !tbaa !14
  %7 = insertelement <4 x float> %5, float %6, i32 1
  %8 = load float, ptr %2, align 4, !tbaa !14
  %9 = insertelement <4 x float> %7, float %8, i32 2
  %10 = load float, ptr %2, align 4, !tbaa !14
  %11 = insertelement <4 x float> %9, float %10, i32 3
  store <4 x float> %11, ptr %3, align 16, !tbaa !129
  %12 = load <4 x float>, ptr %3, align 16, !tbaa !129
  ret <4 x float> %12
}

; Function Attrs: mustprogress uwtable
define hidden void @_ZNK19OpenColorIO_v2_5dev18AntiLogRendererSSE5applyEPKvPvl(ptr noundef nonnull align 8 dereferenceable(12) %0, ptr noundef %1, ptr noundef %2, i64 noundef %3) unnamed_addr #11 align 2 {
  %5 = alloca ptr, align 8
  %6 = alloca ptr, align 8
  %7 = alloca ptr, align 8
  %8 = alloca i64, align 8
  %9 = alloca ptr, align 8
  %10 = alloca ptr, align 8
  %11 = alloca <4 x float>, align 16
  %12 = alloca <4 x float>, align 16
  %13 = alloca i64, align 8
  %14 = alloca float, align 4
  store ptr %0, ptr %5, align 8, !tbaa !136
  store ptr %1, ptr %6, align 8, !tbaa !124
  store ptr %2, ptr %7, align 8, !tbaa !124
  store i64 %3, ptr %8, align 8, !tbaa !115
  %15 = load ptr, ptr %5, align 8
  call void @llvm.lifetime.start.p0(i64 8, ptr %9) #3
  %16 = load ptr, ptr %6, align 8, !tbaa !124
  store ptr %16, ptr %9, align 8, !tbaa !47
  call void @llvm.lifetime.start.p0(i64 8, ptr %10) #3
  %17 = load ptr, ptr %7, align 8, !tbaa !124
  store ptr %17, ptr %10, align 8, !tbaa !47
  call void @llvm.lifetime.start.p0(i64 16, ptr %11) #3
  %18 = getelementptr inbounds nuw %"class.OpenColorIO_v2_5dev::AntiLogRenderer", ptr %15, i32 0, i32 1
  %19 = load float, ptr %18, align 8, !tbaa !133
  %20 = call noundef <4 x float> @_ZL11_mm_set1_psf(float noundef %19)
  store <4 x float> %20, ptr %11, align 16, !tbaa !129
  call void @llvm.lifetime.start.p0(i64 16, ptr %12) #3
  call void @llvm.lifetime.start.p0(i64 8, ptr %13) #3
  store i64 0, ptr %13, align 8, !tbaa !115
  br label %21

21:                                               ; preds = %53, %4
  %22 = load i64, ptr %13, align 8, !tbaa !115
  %23 = load i64, ptr %8, align 8, !tbaa !115
  %24 = icmp slt i64 %22, %23
  br i1 %24, label %26, label %25

25:                                               ; preds = %21
  call void @llvm.lifetime.end.p0(i64 8, ptr %13) #3
  br label %56

26:                                               ; preds = %21
  %27 = load ptr, ptr %9, align 8, !tbaa !47
  %28 = getelementptr inbounds float, ptr %27, i64 2
  %29 = load float, ptr %28, align 4, !tbaa !14
  %30 = load ptr, ptr %9, align 8, !tbaa !47
  %31 = getelementptr inbounds float, ptr %30, i64 1
  %32 = load float, ptr %31, align 4, !tbaa !14
  %33 = load ptr, ptr %9, align 8, !tbaa !47
  %34 = getelementptr inbounds float, ptr %33, i64 0
  %35 = load float, ptr %34, align 4, !tbaa !14
  %36 = call noundef <4 x float> @_ZL10_mm_set_psffff(float noundef 0.000000e+00, float noundef %29, float noundef %32, float noundef %35)
  store <4 x float> %36, ptr %12, align 16, !tbaa !129
  %37 = load <4 x float>, ptr %12, align 16, !tbaa !129
  %38 = load <4 x float>, ptr %11, align 16, !tbaa !129
  %39 = call noundef <4 x float> @_ZL10_mm_mul_psDv4_fS_(<4 x float> noundef %37, <4 x float> noundef %38)
  %40 = call noundef <4 x float> @_ZN19OpenColorIO_v2_5dev7sseExp2EDv4_f(<4 x float> noundef %39)
  store <4 x float> %40, ptr %12, align 16, !tbaa !129
  call void @llvm.lifetime.start.p0(i64 4, ptr %14) #3
  %41 = load ptr, ptr %9, align 8, !tbaa !47
  %42 = getelementptr inbounds float, ptr %41, i64 3
  %43 = load float, ptr %42, align 4, !tbaa !14
  store float %43, ptr %14, align 4, !tbaa !14
  %44 = load ptr, ptr %10, align 8, !tbaa !47
  %45 = load <4 x float>, ptr %12, align 16, !tbaa !129
  call void @_ZL13_mm_storeu_psPfDv4_f(ptr noundef %44, <4 x float> noundef %45)
  %46 = load float, ptr %14, align 4, !tbaa !14
  %47 = load ptr, ptr %10, align 8, !tbaa !47
  %48 = getelementptr inbounds float, ptr %47, i64 3
  store float %46, ptr %48, align 4, !tbaa !14
  %49 = load ptr, ptr %9, align 8, !tbaa !47
  %50 = getelementptr inbounds float, ptr %49, i64 4
  store ptr %50, ptr %9, align 8, !tbaa !47
  %51 = load ptr, ptr %10, align 8, !tbaa !47
  %52 = getelementptr inbounds float, ptr %51, i64 4
  store ptr %52, ptr %10, align 8, !tbaa !47
  call void @llvm.lifetime.end.p0(i64 4, ptr %14) #3
  br label %53

53:                                               ; preds = %26
  %54 = load i64, ptr %13, align 8, !tbaa !115
  %55 = add nsw i64 %54, 1
  store i64 %55, ptr %13, align 8, !tbaa !115
  br label %21, !llvm.loop !138

56:                                               ; preds = %25
  call void @llvm.lifetime.end.p0(i64 16, ptr %12) #3
  call void @llvm.lifetime.end.p0(i64 16, ptr %11) #3
  call void @llvm.lifetime.end.p0(i64 8, ptr %10) #3
  call void @llvm.lifetime.end.p0(i64 8, ptr %9) #3
  ret void
}