; Function Attrs: mustprogress nofree norecurse nosync nounwind memory(argmem: readwrite) uwtable
define hidden void @_ZNK19OpenColorIO_v2_5dev18AntiLogRendererSSE5applyEPKvPvl(ptr noundef nonnull readonly align 8 captures(none) dereferenceable(12) %0, ptr noundef readonly captures(none) %1, ptr noundef writeonly captures(none) %2, i64 noundef %3) unnamed_addr #10 align 2 {
  %5 = getelementptr inbounds nuw i8, ptr %0, i64 8
  %6 = load float, ptr %5, align 8, !tbaa !64
  %7 = insertelement <4 x float> poison, float %6, i64 0
  %8 = shufflevector <4 x float> %7, <4 x float> poison, <4 x i32> zeroinitializer
  %9 = icmp sgt i64 %3, 0
  br i1 %9, label %.lr.ph, label %._crit_edge

._crit_edge:                                      ; preds = %.lr.ph, %4
  ret void

.lr.ph:                                           ; preds = %4, %.lr.ph
  %.021 = phi ptr [ %44, %.lr.ph ], [ %1, %4 ]
  %.01720 = phi i64 [ %46, %.lr.ph ], [ 0, %4 ]
  %.01819 = phi ptr [ %45, %.lr.ph ], [ %2, %4 ]
  %10 = getelementptr inbounds nuw i8, ptr %.021, i64 8
  %11 = load float, ptr %10, align 4, !tbaa !111
  %12 = getelementptr inbounds nuw i8, ptr %.021, i64 4
  %13 = load float, ptr %12, align 4, !tbaa !111
  %14 = load float, ptr %.021, align 4, !tbaa !111
  %15 = insertelement <4 x float> <float poison, float poison, float poison, float 0.000000e+00>, float %14, i64 0
  %16 = insertelement <4 x float> %15, float %13, i64 1
  %17 = insertelement <4 x float> %16, float %11, i64 2
  %18 = fmul <4 x float> %8, %17
  %19 = tail call <4 x i32> @llvm.x86.sse2.cvttps2dq(<4 x float> %18)
  %20 = fcmp ult <4 x float> %18, zeroinitializer
  %21 = sext <4 x i1> %20 to <4 x i32>
  %22 = add <4 x i32> %19, %21
  %23 = shl <4 x i32> %22, splat (i32 23)
  %24 = add <4 x i32> %23, splat (i32 1065353216)
  %25 = bitcast <4 x i32> %24 to <4 x float>
  %26 = sitofp <4 x i32> %22 to <4 x float>
  %27 = fsub <4 x float> %18, %26
  %28 = fmul <4 x float> %27, splat (float 0x3F8BB7CD40000000)
  %29 = fadd <4 x float> %28, splat (float 0x3FAAA13F00000000)
  %30 = fmul <4 x float> %27, %29
  %31 = fadd <4 x float> %30, splat (float 0x3FCEE798A0000000)
  %32 = fmul <4 x float> %27, %31
  %33 = fadd <4 x float> %32, splat (float 0x3FE62D1660000000)
  %34 = fmul <4 x float> %27, %33
  %35 = fadd <4 x float> %34, splat (float 0x3FF00002C0000000)
  %36 = fmul <4 x float> %35, %25
  %37 = fcmp uge <4 x float> %18, splat (float -1.260000e+02)
  %38 = fcmp oge <4 x float> %18, splat (float 1.280000e+02)
  %39 = select <4 x i1> %37, <4 x float> %36, <4 x float> zeroinitializer
  %40 = select <4 x i1> %38, <4 x float> splat (float 0x7FF0000000000000), <4 x float> %39
  %41 = getelementptr inbounds nuw i8, ptr %.021, i64 12
  %42 = load float, ptr %41, align 4, !tbaa !111
  store <4 x float> %40, ptr %.01819, align 1, !tbaa !115
  %43 = getelementptr inbounds nuw i8, ptr %.01819, i64 12
  store float %42, ptr %43, align 4, !tbaa !111
  %44 = getelementptr inbounds nuw i8, ptr %.021, i64 16
  %45 = getelementptr inbounds nuw i8, ptr %.01819, i64 16
  %46 = add nuw nsw i64 %.01720, 1
  %exitcond.not = icmp eq i64 %46, %3
  br i1 %exitcond.not, label %._crit_edge, label %.lr.ph, !llvm.loop !118
}